target datalayout = "e-m:e-p270:32:32-p271:32:32-p272:64:64-i64:64-i128:128-f80:128-n8:16:32:64-S128"
target triple = "x86_64-pc-linux-gnu"

%struct.anon = type { i32, i32 }
%struct.CMS_SignerInfo_st = type { i32, ptr, ptr, ptr, ptr, ptr, ptr, ptr, ptr, ptr, ptr, ptr, i32 }

@.str = private unnamed_addr constant [32 x i8] c"../openssl/crypto/cms/cms_att.c\00", align 1
@__func__.ossl_cms_si_check_attributes = private unnamed_addr constant [29 x i8] c"ossl_cms_si_check_attributes\00", align 1

; Function Attrs: nounwind uwtable
define i32 @CMS_unsigned_get_attr_count(ptr noundef %0) #0 {
  %2 = alloca ptr, align 8
  store ptr %0, ptr %2, align 8, !tbaa !3
  %3 = load ptr, ptr %2, align 8, !tbaa !3
  %4 = getelementptr inbounds nuw %struct.CMS_SignerInfo_st, ptr %3, i32 0, i32 6
  %5 = load ptr, ptr %4, align 8, !tbaa !28
  %6 = call i32 @X509at_get_attr_count(ptr noundef %5)
  ret i32 %6
}

; Function Attrs: nounwind uwtable
define i32 @CMS_signed_get_attr_count(ptr noundef %0) #0 {
  %2 = alloca ptr, align 8
  store ptr %0, ptr %2, align 8, !tbaa !3
  %3 = load ptr, ptr %2, align 8, !tbaa !3
  %4 = getelementptr inbounds nuw %struct.CMS_SignerInfo_st, ptr %3, i32 0, i32 3
  %5 = load ptr, ptr %4, align 8, !tbaa !8
  %6 = call i32 @X509at_get_attr_count(ptr noundef %5)
  ret i32 %6
}

; Function Attrs: nounwind uwtable
define i32 @ossl_cms_si_check_attributes(ptr noundef %0) #0 {
  %2 = alloca i32, align 4
  %3 = alloca ptr, align 8
  %4 = alloca i32, align 4
  %5 = alloca i32, align 4
  %6 = alloca i32, align 4
  %7 = alloca i32, align 4
  %8 = alloca i32, align 4
  %9 = alloca i32, align 4
  store ptr %0, ptr %3, align 8, !tbaa !3
  call void @llvm.lifetime.start.p0(i64 4, ptr %4) #3
  call void @llvm.lifetime.start.p0(i64 4, ptr %5) #3
  %10 = load ptr, ptr %3, align 8, !tbaa !3
  %11 = call i32 @CMS_signed_get_attr_count(ptr noundef %10)
  %12 = icmp sgt i32 %11, 0
  %13 = zext i1 %12 to i32
  store i32 %13, ptr %5, align 4, !tbaa !20
  call void @llvm.lifetime.start.p0(i64 4, ptr %6) #3
  %14 = load ptr, ptr %3, align 8, !tbaa !3
  %15 = call i32 @CMS_unsigned_get_attr_count(ptr noundef %14)
  %16 = icmp sgt i32 %15, 0
  %17 = zext i1 %16 to i32
  store i32 %17, ptr %6, align 4, !tbaa !20
  store i32 0, ptr %4, align 4, !tbaa !20
  br label %18

18:                                               ; preds = %54, %1
  %19 = load i32, ptr %4, align 4, !tbaa !20
  %20 = icmp slt i32 %19, 7
  br i1 %20, label %21, label %57

21:                                               ; preds = %18
  call void @llvm.lifetime.start.p0(i64 4, ptr %7) #3
  %22 = load i32, ptr %4, align 4, !tbaa !20
  %23 = sext i32 %22 to i64
  %24 = getelementptr inbounds [7 x %struct.anon], ptr @cms_attribute_properties, i64 0, i64 %23
  %25 = getelementptr inbounds nuw %struct.anon, ptr %24, i32 0, i32 0
  %26 = load i32, ptr %25, align 8, !tbaa !29
  store i32 %26, ptr %7, align 4, !tbaa !20
  call void @llvm.lifetime.start.p0(i64 4, ptr %8) #3
  %27 = load i32, ptr %4, align 4, !tbaa !20
  %28 = sext i32 %27 to i64
  %29 = getelementptr inbounds [7 x %struct.anon], ptr @cms_attribute_properties, i64 0, i64 %28
  %30 = getelementptr inbounds nuw %struct.anon, ptr %29, i32 0, i32 1
  %31 = load i32, ptr %30, align 4, !tbaa !31
  store i32 %31, ptr %8, align 4, !tbaa !20
  %32 = load i32, ptr %7, align 4, !tbaa !20
  %33 = load i32, ptr %8, align 4, !tbaa !20
  %34 = load ptr, ptr %3, align 8, !tbaa !3
  %35 = getelementptr inbounds nuw %struct.CMS_SignerInfo_st, ptr %34, i32 0, i32 3
  %36 = load ptr, ptr %35, align 8, !tbaa !8
  %37 = load i32, ptr %5, align 4, !tbaa !20
  %38 = call i32 @cms_check_attribute(i32 noundef %32, i32 noundef %33, i32 noundef 1, ptr noundef %36, i32 noundef %37)
  %39 = icmp ne i32 %38, 0
  br i1 %39, label %40, label %49

40:                                               ; preds = %21
  %41 = load i32, ptr %7, align 4, !tbaa !20
  %42 = load i32, ptr %8, align 4, !tbaa !20
  %43 = load ptr, ptr %3, align 8, !tbaa !3
  %44 = getelementptr inbounds nuw %struct.CMS_SignerInfo_st, ptr %43, i32 0, i32 6
  %45 = load ptr, ptr %44, align 8, !tbaa !28
  %46 = load i32, ptr %6, align 4, !tbaa !20
  %47 = call i32 @cms_check_attribute(i32 noundef %41, i32 noundef %42, i32 noundef 2, ptr noundef %45, i32 noundef %46)
  %48 = icmp ne i32 %47, 0
  br i1 %48, label %50, label %49

49:                                               ; preds = %40, %21
  call void @ERR_new()
  call void @ERR_set_debug(ptr noundef @.str, i32 noundef 282, ptr noundef @__func__.ossl_cms_si_check_attributes)
  call void (i32, i32, ptr, ...) @ERR_set_error(i32 noundef 46, i32 noundef 161, ptr noundef null)
  store i32 0, ptr %2, align 4
  store i32 1, ptr %9, align 4
  br label %51

50:                                               ; preds = %40
  store i32 0, ptr %9, align 4
  br label %51

51:                                               ; preds = %50, %49
  call void @llvm.lifetime.end.p0(i64 4, ptr %8) #3
  call void @llvm.lifetime.end.p0(i64 4, ptr %7) #3
  %52 = load i32, ptr %9, align 4
  switch i32 %52, label %58 [
    i32 0, label %53
  ]

53:                                               ; preds = %51
  br label %54

54:                                               ; preds = %53
  %55 = load i32, ptr %4, align 4, !tbaa !20
  %56 = add nsw i32 %55, 1
  store i32 %56, ptr %4, align 4, !tbaa !20
  br label %18, !llvm.loop !32

57:                                               ; preds = %18
  store i32 1, ptr %2, align 4
  store i32 1, ptr %9, align 4
  br label %58

58:                                               ; preds = %57, %51
  call void @llvm.lifetime.end.p0(i64 4, ptr %6) #3
  call void @llvm.lifetime.end.p0(i64 4, ptr %5) #3
  call void @llvm.lifetime.end.p0(i64 4, ptr %4) #3
  %59 = load i32, ptr %2, align 4
  ret i32 %59
}