; Function Attrs: nounwind uwtable
define range(i32 0, 2) i32 @ossl_cms_si_check_attributes(ptr noundef readonly captures(none) %0) local_unnamed_addr #0 {
  %2 = getelementptr inbounds nuw i8, ptr %0, i64 24
  %3 = load ptr, ptr %2, align 8, !tbaa !3
  %4 = tail call i32 @X509at_get_attr_count(ptr noundef %3) #2
  %5 = icmp sgt i32 %4, 0
  %6 = zext i1 %5 to i32
  %7 = getelementptr inbounds nuw i8, ptr %0, i64 48
  %8 = load ptr, ptr %7, align 8, !tbaa !18
  %9 = tail call i32 @X509at_get_attr_count(ptr noundef %8) #2
  %10 = icmp sgt i32 %9, 0
  %11 = zext i1 %10 to i32
  br label %13

12:                                               ; preds = %20
  %indvars.iv.next = add nuw nsw i64 %indvars.iv, 1
  %exitcond.not = icmp eq i64 %indvars.iv.next, 7
  br i1 %exitcond.not, label %.loopexit, label %13, !llvm.loop !19

13:                                               ; preds = %1, %12
  %indvars.iv = phi i64 [ 0, %1 ], [ %indvars.iv.next, %12 ]
  %14 = getelementptr inbounds nuw [7 x %struct.anon], ptr @cms_attribute_properties, i64 0, i64 %indvars.iv
  %15 = load i32, ptr %14, align 8, !tbaa !21
  %16 = getelementptr inbounds nuw i8, ptr %14, i64 4
  %17 = load i32, ptr %16, align 4, !tbaa !23
  %18 = load ptr, ptr %2, align 8, !tbaa !3
  %19 = tail call fastcc i32 @cms_check_attribute(i32 noundef %15, i32 noundef %17, i32 noundef 1, ptr noundef %18, i32 noundef %6)
  %.not = icmp eq i32 %19, 0
  br i1 %.not, label %.critedge, label %20

20:                                               ; preds = %13
  %21 = load ptr, ptr %7, align 8, !tbaa !18
  %22 = tail call fastcc i32 @cms_check_attribute(i32 noundef %15, i32 noundef %17, i32 noundef 2, ptr noundef %21, i32 noundef %11)
  %.not17 = icmp eq i32 %22, 0
  br i1 %.not17, label %.critedge, label %12

.critedge:                                        ; preds = %20, %13
  tail call void @ERR_new() #2
  tail call void @ERR_set_debug(ptr noundef nonnull @.str, i32 noundef 282, ptr noundef nonnull @__func__.ossl_cms_si_check_attributes) #2
  tail call void (i32, i32, ptr, ...) @ERR_set_error(i32 noundef 46, i32 noundef 161, ptr noundef null) #2
  br label %.loopexit

.loopexit:                                        ; preds = %12, %.critedge
  %.2 = phi i32 [ 0, %.critedge ], [ 1, %12 ]
  ret i32 %.2
}